; Function Attrs: mustprogress uwtable
define void @_ZN11GLLogStream11realTimeLogERK7QStringS2_S2_(ptr noundef nonnull align 8 dereferenceable(40) %0, ptr noundef nonnull align 8 dereferenceable(8) %1, ptr nocapture noundef nonnull readonly align 8 dereferenceable(8) %2, ptr nocapture noundef nonnull readonly align 8 dereferenceable(8) %3) local_unnamed_addr #0 align 2 personality ptr @__gxx_personality_v0 {
  %5 = alloca %struct.QPair, align 8
  %6 = getelementptr inbounds i8, ptr %0, i64 32
  tail call void @llvm.experimental.noalias.scope.decl(metadata !5)
  %7 = load ptr, ptr %2, align 8, !noalias !5
  store ptr %7, ptr %5, align 8, !alias.scope !5
  %8 = load atomic i32, ptr %7 monotonic, align 4, !noalias !5
  %9 = add i32 %8, -1
  %or.cond.not.i.i.i.i = icmp ult i32 %9, -2
  br i1 %or.cond.not.i.i.i.i, label %10, label %_ZN7QStringC2ERKS_.exit.i.i

10:                                               ; preds = %4
  %11 = atomicrmw add ptr %7, i32 1 seq_cst, align 4, !noalias !5
  br label %_ZN7QStringC2ERKS_.exit.i.i

_ZN7QStringC2ERKS_.exit.i.i:                      ; preds = %10, %4
  %12 = getelementptr inbounds i8, ptr %5, i64 8
  %13 = load ptr, ptr %3, align 8, !noalias !5
  store ptr %13, ptr %12, align 8, !alias.scope !5
  %14 = load atomic i32, ptr %13 monotonic, align 4, !noalias !5
  %15 = add i32 %14, -1
  %or.cond.not.i.i3.i.i = icmp ult i32 %15, -2
  br i1 %or.cond.not.i.i3.i.i, label %16, label %_Z9qMakePairI7QStringS0_E5QPairIT_T0_ERKS2_RKS3_.exit

16:                                               ; preds = %_ZN7QStringC2ERKS_.exit.i.i
  %17 = atomicrmw add ptr %13, i32 1 seq_cst, align 4, !noalias !5
  br label %_Z9qMakePairI7QStringS0_E5QPairIT_T0_ERKS2_RKS3_.exit

_Z9qMakePairI7QStringS0_E5QPairIT_T0_ERKS2_RKS3_.exit: ; preds = %_ZN7QStringC2ERKS_.exit.i.i, %16
  %18 = invoke ptr @_ZN9QMultiMapI7QString5QPairIS0_S0_EE6insertERKS0_RKS2_(ptr noundef nonnull align 8 dereferenceable(8) %6, ptr noundef nonnull align 8 dereferenceable(8) %1, ptr noundef nonnull align 8 dereferenceable(16) %5)
          to label %19 unwind label %28

19:                                               ; preds = %_Z9qMakePairI7QStringS0_E5QPairIT_T0_ERKS2_RKS3_.exit
  %20 = load ptr, ptr %12, align 8
  %21 = load atomic i32, ptr %20 monotonic, align 4
  switch i32 %21, label %_ZN9QtPrivate8RefCount5derefEv.exit.i.i [
    i32 0, label %_ZN9QtPrivate8RefCount5derefEv.exit.thread2.i.i
    i32 -1, label %_ZN7QStringD2Ev.exit.i
  ]

_ZN9QtPrivate8RefCount5derefEv.exit.i.i:          ; preds = %19
  %22 = atomicrmw sub ptr %20, i32 1 seq_cst, align 4
  %.not.i.i = icmp eq i32 %22, 1
  br i1 %.not.i.i, label %_ZN9QtPrivate8RefCount5derefEv.exit._ZN9QtPrivate8RefCount5derefEv.exit.thread2_crit_edge.i.i, label %_ZN7QStringD2Ev.exit.i

_ZN9QtPrivate8RefCount5derefEv.exit._ZN9QtPrivate8RefCount5derefEv.exit.thread2_crit_edge.i.i: ; preds = %_ZN9QtPrivate8RefCount5derefEv.exit.i.i
  %.pre.i.i = load ptr, ptr %12, align 8
  br label %_ZN9QtPrivate8RefCount5derefEv.exit.thread2.i.i

_ZN9QtPrivate8RefCount5derefEv.exit.thread2.i.i:  ; preds = %_ZN9QtPrivate8RefCount5derefEv.exit._ZN9QtPrivate8RefCount5derefEv.exit.thread2_crit_edge.i.i, %19
  %23 = phi ptr [ %.pre.i.i, %_ZN9QtPrivate8RefCount5derefEv.exit._ZN9QtPrivate8RefCount5derefEv.exit.thread2_crit_edge.i.i ], [ %20, %19 ]
  call void @_ZN10QArrayData10deallocateEPS_mm(ptr noundef %23, i64 noundef 2, i64 noundef 8) #16
  br label %_ZN7QStringD2Ev.exit.i

_ZN7QStringD2Ev.exit.i:                           ; preds = %_ZN9QtPrivate8RefCount5derefEv.exit.thread2.i.i, %_ZN9QtPrivate8RefCount5derefEv.exit.i.i, %19
  %24 = load ptr, ptr %5, align 8
  %25 = load atomic i32, ptr %24 monotonic, align 4
  switch i32 %25, label %_ZN9QtPrivate8RefCount5derefEv.exit.i2.i [
    i32 0, label %_ZN9QtPrivate8RefCount5derefEv.exit.thread2.i1.i
    i32 -1, label %_ZN5QPairI7QStringS0_ED2Ev.exit
  ]

_ZN9QtPrivate8RefCount5derefEv.exit.i2.i:         ; preds = %_ZN7QStringD2Ev.exit.i
  %26 = atomicrmw sub ptr %24, i32 1 seq_cst, align 4
  %.not.i3.i = icmp eq i32 %26, 1
  br i1 %.not.i3.i, label %_ZN9QtPrivate8RefCount5derefEv.exit._ZN9QtPrivate8RefCount5derefEv.exit.thread2_crit_edge.i4.i, label %_ZN5QPairI7QStringS0_ED2Ev.exit

_ZN9QtPrivate8RefCount5derefEv.exit._ZN9QtPrivate8RefCount5derefEv.exit.thread2_crit_edge.i4.i: ; preds = %_ZN9QtPrivate8RefCount5derefEv.exit.i2.i
  %.pre.i5.i = load ptr, ptr %5, align 8
  br label %_ZN9QtPrivate8RefCount5derefEv.exit.thread2.i1.i

_ZN9QtPrivate8RefCount5derefEv.exit.thread2.i1.i: ; preds = %_ZN9QtPrivate8RefCount5derefEv.exit._ZN9QtPrivate8RefCount5derefEv.exit.thread2_crit_edge.i4.i, %_ZN7QStringD2Ev.exit.i
  %27 = phi ptr [ %.pre.i5.i, %_ZN9QtPrivate8RefCount5derefEv.exit._ZN9QtPrivate8RefCount5derefEv.exit.thread2_crit_edge.i4.i ], [ %24, %_ZN7QStringD2Ev.exit.i ]
  call void @_ZN10QArrayData10deallocateEPS_mm(ptr noundef %27, i64 noundef 2, i64 noundef 8) #16
  br label %_ZN5QPairI7QStringS0_ED2Ev.exit

_ZN5QPairI7QStringS0_ED2Ev.exit:                  ; preds = %_ZN7QStringD2Ev.exit.i, %_ZN9QtPrivate8RefCount5derefEv.exit.i2.i, %_ZN9QtPrivate8RefCount5derefEv.exit.thread2.i1.i
  ret void

28:                                               ; preds = %_Z9qMakePairI7QStringS0_E5QPairIT_T0_ERKS2_RKS3_.exit
  %29 = landingpad { ptr, i32 }
          cleanup
  call void @_ZN5QPairI7QStringS0_ED2Ev(ptr noundef nonnull align 8 dereferenceable(16) %5) #16
  resume { ptr, i32 } %29
}